; Function Attrs: mustprogress nounwind uwtable
define hidden noundef ptr @_ZNK9SqrtDNode5ValueEP8PhaseGVN(ptr nocapture noundef nonnull readonly align 8 dereferenceable(52) %0, ptr nocapture noundef readonly %1) unnamed_addr #0 align 2 {
  %3 = getelementptr inbounds i8, ptr %0, i64 8
  %4 = load ptr, ptr %3, align 8
  %5 = getelementptr inbounds i8, ptr %4, i64 8
  %6 = load ptr, ptr %5, align 8
  %7 = getelementptr inbounds i8, ptr %1, i64 40
  %8 = load ptr, ptr %7, align 8
  %9 = getelementptr inbounds i8, ptr %6, i64 40
  %10 = load i32, ptr %9, align 8
  %11 = getelementptr inbounds i8, ptr %8, i64 16
  %12 = load ptr, ptr %11, align 8
  %13 = zext i32 %10 to i64
  %14 = getelementptr inbounds ptr, ptr %12, i64 %13
  %15 = load ptr, ptr %14, align 8
  %16 = load ptr, ptr @_ZN4Type3TOPE, align 8
  %17 = icmp eq ptr %15, %16
  br i1 %17, label %32, label %18

18:                                               ; preds = %2
  %19 = getelementptr inbounds i8, ptr %15, i64 16
  %20 = load i32, ptr %19, align 8
  %.not = icmp eq i32 %20, 35
  br i1 %.not, label %23, label %21

21:                                               ; preds = %18
  %22 = load ptr, ptr @_ZN4Type6DOUBLEE, align 8
  br label %32

23:                                               ; preds = %18
  %24 = getelementptr inbounds i8, ptr %15, i64 24
  %25 = load double, ptr %24, align 8
  %26 = fcmp olt double %25, 0.000000e+00
  br i1 %26, label %27, label %29

27:                                               ; preds = %23
  %28 = load ptr, ptr @_ZN4Type6DOUBLEE, align 8
  br label %32

29:                                               ; preds = %23
  %30 = tail call double @sqrt(double noundef %25) #10
  %31 = tail call noundef ptr @_ZN5TypeD4makeEd(double noundef %30) #10
  br label %32

32:                                               ; preds = %2, %29, %27, %21
  %.0 = phi ptr [ %22, %21 ], [ %28, %27 ], [ %31, %29 ], [ %16, %2 ]
  ret ptr %.0
}